; ModuleID = '29/1893.c'
source_filename = "29/1893.c"
target datalayout = "e-m:e-p270:32:32-p271:32:32-p272:64:64-i64:64-f80:128-n8:16:32:64-S128"
target triple = "x86_64-pc-linux-gnu"

@.str = private unnamed_addr constant [3 x i8] c"%d\00", align 1
@.str.1 = private unnamed_addr constant [6 x i8] c"%.3f\0A\00", align 1

; Function Attrs: noinline nounwind uwtable
define dso_local i32 @main() #0 {
  %1 = alloca i32, align 4
  %2 = alloca i32, align 4
  %3 = alloca i32, align 4
  %4 = alloca i32, align 4
  %5 = alloca [100 x i32], align 16
  %6 = alloca float, align 4
  %7 = alloca [100 x float], align 16
  %8 = alloca [100 x float], align 16
  store i32 0, i32* %1, align 4
  %9 = call i32 (i8*, ...) @__isoc99_scanf(i8* getelementptr inbounds ([3 x i8], [3 x i8]* @.str, i64 0, i64 0), i32* %2)
  %10 = getelementptr inbounds [100 x float], [100 x float]* %7, i64 0, i64 1
  store float 2.000000e+00, float* %10, align 4
  %11 = getelementptr inbounds [100 x float], [100 x float]* %7, i64 0, i64 2
  store float 3.000000e+00, float* %11, align 8
  %12 = getelementptr inbounds [100 x float], [100 x float]* %8, i64 0, i64 1
  store float 1.000000e+00, float* %12, align 4
  %13 = getelementptr inbounds [100 x float], [100 x float]* %8, i64 0, i64 2
  store float 2.000000e+00, float* %13, align 8
  store i32 1, i32* %3, align 4
  br label %14

14:                                               ; preds = %104, %0
  %15 = load i32, i32* %3, align 4
  %16 = load i32, i32* %2, align 4
  %17 = icmp sle i32 %15, %16
  br i1 %17, label %18, label %107

18:                                               ; preds = %14
  %19 = load i32, i32* %3, align 4
  %20 = sext i32 %19 to i64
  %21 = getelementptr inbounds [100 x i32], [100 x i32]* %5, i64 0, i64 %20
  %22 = call i32 (i8*, ...) @__isoc99_scanf(i8* getelementptr inbounds ([3 x i8], [3 x i8]* @.str, i64 0, i64 0), i32* %21)
  %23 = load i32, i32* %3, align 4
  %24 = sext i32 %23 to i64
  %25 = getelementptr inbounds [100 x i32], [100 x i32]* %5, i64 0, i64 %24
  %26 = load i32, i32* %25, align 4
  %27 = icmp eq i32 %26, 2
  br i1 %27, label %28, label %29

28:                                               ; preds = %18
  store float 3.500000e+00, float* %6, align 4
  br label %100

29:                                               ; preds = %18
  %30 = load i32, i32* %3, align 4
  %31 = sext i32 %30 to i64
  %32 = getelementptr inbounds [100 x i32], [100 x i32]* %5, i64 0, i64 %31
  %33 = load i32, i32* %32, align 4
  %34 = icmp eq i32 %33, 1
  br i1 %34, label %35, label %36

35:                                               ; preds = %29
  store float 2.000000e+00, float* %6, align 4
  br label %99

36:                                               ; preds = %29
  %37 = getelementptr inbounds [100 x float], [100 x float]* %7, i64 0, i64 1
  %38 = load float, float* %37, align 4
  %39 = getelementptr inbounds [100 x float], [100 x float]* %8, i64 0, i64 1
  %40 = load float, float* %39, align 4
  %41 = fdiv float %38, %40
  %42 = getelementptr inbounds [100 x float], [100 x float]* %7, i64 0, i64 2
  %43 = load float, float* %42, align 8
  %44 = getelementptr inbounds [100 x float], [100 x float]* %8, i64 0, i64 2
  %45 = load float, float* %44, align 8
  %46 = fdiv float %43, %45
  %47 = fadd float %41, %46
  store float %47, float* %6, align 4
  store i32 3, i32* %4, align 4
  br label %48

48:                                               ; preds = %95, %36
  %49 = load i32, i32* %4, align 4
  %50 = load i32, i32* %3, align 4
  %51 = sext i32 %50 to i64
  %52 = getelementptr inbounds [100 x i32], [100 x i32]* %5, i64 0, i64 %51
  %53 = load i32, i32* %52, align 4
  %54 = icmp sle i32 %49, %53
  br i1 %54, label %55, label %98

55:                                               ; preds = %48
  %56 = load i32, i32* %4, align 4
  %57 = sub nsw i32 %56, 1
  %58 = sext i32 %57 to i64
  %59 = getelementptr inbounds [100 x float], [100 x float]* %7, i64 0, i64 %58
  %60 = load float, float* %59, align 4
  %61 = load i32, i32* %4, align 4
  %62 = sub nsw i32 %61, 2
  %63 = sext i32 %62 to i64
  %64 = getelementptr inbounds [100 x float], [100 x float]* %7, i64 0, i64 %63
  %65 = load float, float* %64, align 4
  %66 = fadd float %60, %65
  %67 = load i32, i32* %4, align 4
  %68 = sext i32 %67 to i64
  %69 = getelementptr inbounds [100 x float], [100 x float]* %7, i64 0, i64 %68
  store float %66, float* %69, align 4
  %70 = load i32, i32* %4, align 4
  %71 = sub nsw i32 %70, 1
  %72 = sext i32 %71 to i64
  %73 = getelementptr inbounds [100 x float], [100 x float]* %8, i64 0, i64 %72
  %74 = load float, float* %73, align 4
  %75 = load i32, i32* %4, align 4
  %76 = sub nsw i32 %75, 2
  %77 = sext i32 %76 to i64
  %78 = getelementptr inbounds [100 x float], [100 x float]* %8, i64 0, i64 %77
  %79 = load float, float* %78, align 4
  %80 = fadd float %74, %79
  %81 = load i32, i32* %4, align 4
  %82 = sext i32 %81 to i64
  %83 = getelementptr inbounds [100 x float], [100 x float]* %8, i64 0, i64 %82
  store float %80, float* %83, align 4
  %84 = load float, float* %6, align 4
  %85 = load i32, i32* %4, align 4
  %86 = sext i32 %85 to i64
  %87 = getelementptr inbounds [100 x float], [100 x float]* %7, i64 0, i64 %86
  %88 = load float, float* %87, align 4
  %89 = load i32, i32* %4, align 4
  %90 = sext i32 %89 to i64
  %91 = getelementptr inbounds [100 x float], [100 x float]* %8, i64 0, i64 %90
  %92 = load float, float* %91, align 4
  %93 = fdiv float %88, %92
  %94 = fadd float %84, %93
  store float %94, float* %6, align 4
  br label %95

95:                                               ; preds = %55
  %96 = load i32, i32* %4, align 4
  %97 = add nsw i32 %96, 1
  store i32 %97, i32* %4, align 4
  br label %48

98:                                               ; preds = %48
  br label %99

99:                                               ; preds = %98, %35
  br label %100

100:                                              ; preds = %99, %28
  %101 = load float, float* %6, align 4
  %102 = fpext float %101 to double
  %103 = call i32 (i8*, ...) @printf(i8* getelementptr inbounds ([6 x i8], [6 x i8]* @.str.1, i64 0, i64 0), double %102)
  br label %104

104:                                              ; preds = %100
  %105 = load i32, i32* %3, align 4
  %106 = add nsw i32 %105, 1
  store i32 %106, i32* %3, align 4
  br label %14

107:                                              ; preds = %14
  ret i32 0
}

declare dso_local i32 @__isoc99_scanf(i8*, ...) #1

declare dso_local i32 @printf(i8*, ...) #1


!llvm.module.flags = !{!0}
!llvm.ident = !{!1}

!0 = !{i32 1, !"wchar_size", i32 4}
!1 = !{!"clang version 10.0.0-4ubuntu1 "}
